target datalayout = "e-m:e-p270:32:32-p271:32:32-p272:64:64-i64:64-i128:128-f80:128-n8:16:32:64-S128"
target triple = "x86_64-pc-linux-gnu"

%struct.ASNItem = type { i8, i8, i8, i8 }
%struct.ASNGetData = type { i32, i32, %union.anon.0, i8, i8 }
%union.anon.0 = type { %struct.anon.3 }
%struct.anon.3 = type { ptr, i32, i32, i32 }
%struct.anon.2 = type { ptr, i32 }

@dateASN = internal constant [2 x %struct.ASNItem] [%struct.ASNItem { i8 0, i8 23, i8 0, i8 2 }, %struct.ASNItem { i8 0, i8 24, i8 0, i8 2 }], align 1

; Function Attrs: nounwind uwtable
define internal i32 @GetDateInfo(ptr noundef %0, ptr noundef %1, ptr noundef %2, ptr noundef %3, ptr noundef %4, i32 noundef %5) #0 {
  %7 = alloca ptr, align 8
  %8 = alloca ptr, align 8
  %9 = alloca ptr, align 8
  %10 = alloca ptr, align 8
  %11 = alloca ptr, align 8
  %12 = alloca i32, align 4
  %13 = alloca [2 x %struct.ASNGetData], align 16
  %14 = alloca i32, align 4
  %15 = alloca i32, align 4
  store ptr %0, ptr %7, align 8, !tbaa !7
  store ptr %1, ptr %8, align 8, !tbaa !18
  store ptr %2, ptr %9, align 8, !tbaa !90
  store ptr %3, ptr %10, align 8, !tbaa !7
  store ptr %4, ptr %11, align 8, !tbaa !18
  store i32 %5, ptr %12, align 4, !tbaa !3
  call void @llvm.lifetime.start.p0(i64 80, ptr %13) #9
  call void @llvm.lifetime.start.p0(i64 4, ptr %14) #9
  store i32 0, ptr %14, align 4, !tbaa !3
  %16 = load ptr, ptr %7, align 8, !tbaa !7
  %17 = icmp eq ptr %16, null
  br i1 %17, label %21, label %18

18:                                               ; preds = %6
  %19 = load ptr, ptr %8, align 8, !tbaa !18
  %20 = icmp eq ptr %19, null
  br i1 %20, label %21, label %22

21:                                               ; preds = %18, %6
  store i32 -173, ptr %14, align 4, !tbaa !3
  br label %22

22:                                               ; preds = %21, %18
  %23 = load i32, ptr %14, align 4, !tbaa !3
  %24 = icmp eq i32 %23, 0
  br i1 %24, label %25, label %32

25:                                               ; preds = %22
  %26 = getelementptr inbounds [2 x %struct.ASNGetData], ptr %13, i64 0, i64 0
  call void @llvm.memset.p0.i64(ptr align 16 %26, i8 0, i64 80, i1 false)
  %27 = getelementptr inbounds [2 x %struct.ASNGetData], ptr %13, i64 0, i64 0
  %28 = load ptr, ptr %7, align 8, !tbaa !7
  %29 = load ptr, ptr %8, align 8, !tbaa !18
  %30 = load i32, ptr %12, align 4, !tbaa !3
  %31 = call i32 @GetASN_Items(ptr noundef @dateASN, ptr noundef %27, i32 noundef 2, i32 noundef 0, ptr noundef %28, ptr noundef %29, i32 noundef %30)
  store i32 %31, ptr %14, align 4, !tbaa !3
  br label %32

32:                                               ; preds = %25, %22
  %33 = load i32, ptr %14, align 4, !tbaa !3
  %34 = icmp eq i32 %33, 0
  br i1 %34, label %35, label %74

35:                                               ; preds = %32
  call void @llvm.lifetime.start.p0(i64 4, ptr %15) #9
  %36 = getelementptr inbounds [2 x %struct.ASNGetData], ptr %13, i64 0, i64 0
  %37 = getelementptr inbounds nuw %struct.ASNGetData, ptr %36, i32 0, i32 4
  %38 = load i8, ptr %37, align 1, !tbaa !45
  %39 = zext i8 %38 to i32
  %40 = icmp ne i32 %39, 0
  %41 = select i1 %40, i32 0, i32 1
  store i32 %41, ptr %15, align 4, !tbaa !3
  %42 = load ptr, ptr %10, align 8, !tbaa !7
  %43 = icmp ne ptr %42, null
  br i1 %43, label %44, label %51

44:                                               ; preds = %35
  %45 = load i32, ptr %15, align 4, !tbaa !3
  %46 = sext i32 %45 to i64
  %47 = getelementptr inbounds [2 x %struct.ASNGetData], ptr %13, i64 0, i64 %46
  %48 = getelementptr inbounds nuw %struct.ASNGetData, ptr %47, i32 0, i32 4
  %49 = load i8, ptr %48, align 1, !tbaa !45
  %50 = load ptr, ptr %10, align 8, !tbaa !7
  store i8 %49, ptr %50, align 1, !tbaa !10
  br label %51

51:                                               ; preds = %44, %35
  %52 = load ptr, ptr %9, align 8, !tbaa !90
  %53 = icmp ne ptr %52, null
  br i1 %53, label %54, label %62

54:                                               ; preds = %51
  %55 = load i32, ptr %15, align 4, !tbaa !3
  %56 = sext i32 %55 to i64
  %57 = getelementptr inbounds [2 x %struct.ASNGetData], ptr %13, i64 0, i64 %56
  %58 = getelementptr inbounds nuw %struct.ASNGetData, ptr %57, i32 0, i32 2
  %59 = getelementptr inbounds nuw %struct.anon.2, ptr %58, i32 0, i32 0
  %60 = load ptr, ptr %59, align 8, !tbaa !10
  %61 = load ptr, ptr %9, align 8, !tbaa !90
  store ptr %60, ptr %61, align 8, !tbaa !7
  br label %62

62:                                               ; preds = %54, %51
  %63 = load ptr, ptr %11, align 8, !tbaa !18
  %64 = icmp ne ptr %63, null
  br i1 %64, label %65, label %73

65:                                               ; preds = %62
  %66 = load i32, ptr %15, align 4, !tbaa !3
  %67 = sext i32 %66 to i64
  %68 = getelementptr inbounds [2 x %struct.ASNGetData], ptr %13, i64 0, i64 %67
  %69 = getelementptr inbounds nuw %struct.ASNGetData, ptr %68, i32 0, i32 2
  %70 = getelementptr inbounds nuw %struct.anon.2, ptr %69, i32 0, i32 1
  %71 = load i32, ptr %70, align 8, !tbaa !10
  %72 = load ptr, ptr %11, align 8, !tbaa !18
  store i32 %71, ptr %72, align 4, !tbaa !3
  br label %73

73:                                               ; preds = %65, %62
  call void @llvm.lifetime.end.p0(i64 4, ptr %15) #9
  br label %74

74:                                               ; preds = %73, %32
  %75 = load i32, ptr %14, align 4, !tbaa !3
  call void @llvm.lifetime.end.p0(i64 4, ptr %14) #9
  call void @llvm.lifetime.end.p0(i64 80, ptr %13) #9
  ret i32 %75
}

; Function Attrs: nounwind uwtable
define i32 @wc_GetDateInfo(ptr noundef %0, i32 noundef %1, ptr noundef %2, ptr noundef %3, ptr noundef %4) #0 {
  %6 = alloca ptr, align 8
  %7 = alloca i32, align 4
  %8 = alloca ptr, align 8
  %9 = alloca ptr, align 8
  %10 = alloca ptr, align 8
  %11 = alloca i32, align 4
  %12 = alloca i32, align 4
  store ptr %0, ptr %6, align 8, !tbaa !7
  store i32 %1, ptr %7, align 4, !tbaa !3
  store ptr %2, ptr %8, align 8, !tbaa !90
  store ptr %3, ptr %9, align 8, !tbaa !7
  store ptr %4, ptr %10, align 8, !tbaa !18
  call void @llvm.lifetime.start.p0(i64 4, ptr %11) #9
  call void @llvm.lifetime.start.p0(i64 4, ptr %12) #9
  store i32 0, ptr %12, align 4, !tbaa !3
  %13 = load ptr, ptr %6, align 8, !tbaa !7
  %14 = load ptr, ptr %8, align 8, !tbaa !90
  %15 = load ptr, ptr %9, align 8, !tbaa !7
  %16 = load ptr, ptr %10, align 8, !tbaa !18
  %17 = load i32, ptr %7, align 4, !tbaa !3
  %18 = call i32 @GetDateInfo(ptr noundef %13, ptr noundef %12, ptr noundef %14, ptr noundef %15, ptr noundef %16, i32 noundef %17)
  store i32 %18, ptr %11, align 4, !tbaa !3
  %19 = load i32, ptr %11, align 4, !tbaa !3
  call void @llvm.lifetime.end.p0(i64 4, ptr %12) #9
  call void @llvm.lifetime.end.p0(i64 4, ptr %11) #9
  ret i32 %19
}