; Function Attrs: nounwind uwtable
define range(i32 -192, 1) i32 @wc_GetDateInfo(ptr noundef %0, i32 noundef %1, ptr noundef writeonly captures(address_is_null) %2, ptr noundef writeonly captures(address_is_null) %3, ptr noundef writeonly captures(address_is_null) %4) local_unnamed_addr #2 {
  %6 = alloca [2 x %struct.ASNGetData], align 16
  %7 = alloca i32, align 4
  call void @llvm.lifetime.start.p0(i64 4, ptr nonnull %7) #22
  store i32 0, ptr %7, align 4, !tbaa !22
  call void @llvm.lifetime.start.p0(i64 80, ptr nonnull %6) #22
  %.not.i = icmp eq ptr %0, null
  br i1 %.not.i, label %GetDateInfo.exit, label %8

8:                                                ; preds = %5
  call void @llvm.memset.p0.i64(ptr noundef nonnull align 16 dereferenceable(80) %6, i8 0, i64 80, i1 false)
  %9 = call i32 @GetASN_Items(ptr noundef nonnull @dateASN, ptr noundef nonnull %6, i32 noundef 2, i32 noundef 0, ptr noundef nonnull %0, ptr noundef nonnull %7, i32 noundef %1)
  %10 = icmp eq i32 %9, 0
  br i1 %10, label %11, label %GetDateInfo.exit

11:                                               ; preds = %8
  %12 = getelementptr inbounds nuw i8, ptr %6, i64 33
  %13 = load i8, ptr %12, align 1, !tbaa !34
  %.not20.i = icmp eq i8 %13, 0
  %.not21.i = icmp eq ptr %3, null
  br i1 %.not21.i, label %18, label %14

14:                                               ; preds = %11
  %15 = zext i1 %.not20.i to i64
  %16 = getelementptr inbounds nuw [2 x %struct.ASNGetData], ptr %6, i64 0, i64 %15, i32 4
  %17 = load i8, ptr %16, align 1, !tbaa !34
  store i8 %17, ptr %3, align 1, !tbaa !3
  br label %18

18:                                               ; preds = %14, %11
  %.not22.i = icmp eq ptr %2, null
  br i1 %.not22.i, label %23, label %19

19:                                               ; preds = %18
  %20 = zext i1 %.not20.i to i64
  %21 = getelementptr inbounds nuw [2 x %struct.ASNGetData], ptr %6, i64 0, i64 %20, i32 2
  %22 = load ptr, ptr %21, align 8, !tbaa !3
  store ptr %22, ptr %2, align 8, !tbaa !49
  br label %23

23:                                               ; preds = %19, %18
  %.not23.i = icmp eq ptr %4, null
  br i1 %.not23.i, label %GetDateInfo.exit, label %24

24:                                               ; preds = %23
  %25 = zext i1 %.not20.i to i64
  %26 = getelementptr inbounds nuw [2 x %struct.ASNGetData], ptr %6, i64 0, i64 %25, i32 2, i32 0, i32 1
  %27 = load i32, ptr %26, align 8, !tbaa !3
  store i32 %27, ptr %4, align 4, !tbaa !22
  br label %GetDateInfo.exit

GetDateInfo.exit:                                 ; preds = %5, %8, %23, %24
  %.025.i = phi i32 [ 0, %23 ], [ 0, %24 ], [ %9, %8 ], [ -173, %5 ]
  call void @llvm.lifetime.end.p0(i64 80, ptr nonnull %6) #22
  call void @llvm.lifetime.end.p0(i64 4, ptr nonnull %7) #22
  ret i32 %.025.i
}